target datalayout = "e-m:e-p270:32:32-p271:32:32-p272:64:64-i64:64-i128:128-f80:128-n8:16:32:64-S128"
target triple = "x86_64-pc-linux-gnu"

%struct.H5C_cache_entry_t = type { ptr, i64, i64, ptr, i8, ptr, i8, i8, i8, i8, i32, i8, i8, i8, i8, i8, i32, ptr, i32, i32, i32, i32, i32, i8, i8, ptr, ptr, ptr, ptr, ptr, ptr, i8, i32, i8, i64, ptr, i64, i64, i32, i8, i32, i32, i8, ptr, ptr, ptr }
%struct.H5EA_dbk_page_t = type { %struct.H5C_cache_entry_t, ptr, ptr, i64, i64, i8, ptr, ptr }

@H5EA_init_g = external global i8, align 1
@H5_libterm_g = external global i8, align 1
@.str.5 = private unnamed_addr constant [103 x i8] c"generated/home/dtcxzyw/WorkSpace/Projects/compilers/llvm-opt-benchmark/bench/hdf5/hdf5/src/H5EAcache.c\00", align 1
@H5E_EARRAY_g = external global i64, align 8
@H5E_BADVALUE_g = external global i64, align 8
@H5E_CANTUNDEPEND_g = external global i64, align 8
@.str.16 = private unnamed_addr constant [35 x i8] c"unknown action from metadata cache\00", align 1
@H5E_CANTDEPEND_g = external global i64, align 8
@__func__.H5EA__cache_dblk_page_notify = private unnamed_addr constant [29 x i8] c"H5EA__cache_dblk_page_notify\00", align 1
@.str.55 = private unnamed_addr constant [85 x i8] c"unable to create flush dependency between data block page and parent, address = %llu\00", align 1
@.str.56 = private unnamed_addr constant [86 x i8] c"unable to destroy flush dependency between data block page and header, address = %llu\00", align 1
@.str.57 = private unnamed_addr constant [86 x i8] c"unable to destroy flush dependency between data block page and parent, address = %llu\00", align 1
@.str.58 = private unnamed_addr constant [92 x i8] c"unable to destroy flush dependency between data block page and extensible array 'top' proxy\00", align 1

; Function Attrs: nounwind uwtable
define internal i32 @H5EA__cache_dblk_page_notify(i32 noundef %0, ptr noundef %1) #0 {
  %3 = alloca i32, align 4
  %4 = alloca ptr, align 8
  %5 = alloca ptr, align 8
  %6 = alloca i32, align 4
  %7 = alloca i8, align 1
  store i32 %0, ptr %3, align 4, !tbaa !22
  store ptr %1, ptr %4, align 8, !tbaa !3
  call void @llvm.lifetime.start.p0(i64 8, ptr %5) #8
  %8 = load ptr, ptr %4, align 8, !tbaa !3
  store ptr %8, ptr %5, align 8, !tbaa !174
  call void @llvm.lifetime.start.p0(i64 4, ptr %6) #8
  store i32 0, ptr %6, align 4, !tbaa !22
  call void @llvm.lifetime.start.p0(i64 1, ptr %7) #8
  store i8 0, ptr %7, align 1, !tbaa !11
  %9 = load i8, ptr @H5EA_init_g, align 1, !tbaa !11, !range !13, !noundef !14
  %10 = trunc i8 %9 to i1
  br i1 %10, label %15, label %11

11:                                               ; preds = %2
  %12 = load i8, ptr @H5_libterm_g, align 1, !tbaa !11, !range !13, !noundef !14
  %13 = trunc i8 %12 to i1
  %14 = xor i1 %13, true
  br label %15

15:                                               ; preds = %11, %2
  %16 = phi i1 [ true, %2 ], [ %14, %11 ]
  %17 = xor i1 %16, true
  %18 = xor i1 %17, true
  %19 = zext i1 %18 to i32
  %20 = sext i32 %19 to i64
  %21 = call i64 @llvm.expect.i64(i64 %20, i64 1)
  %22 = icmp ne i64 %21, 0
  br i1 %22, label %23, label %216

23:                                               ; preds = %15
  %24 = load i32, ptr %3, align 4, !tbaa !22
  switch i32 %24, label %195 [
    i32 0, label %25
    i32 1, label %25
    i32 2, label %55
    i32 3, label %93
    i32 4, label %194
    i32 5, label %194
    i32 6, label %194
    i32 7, label %194
    i32 8, label %194
    i32 9, label %194
  ]

25:                                               ; preds = %23, %23
  %26 = load ptr, ptr %5, align 8, !tbaa !174
  %27 = getelementptr inbounds nuw %struct.H5EA_dbk_page_t, ptr %26, i32 0, i32 7
  %28 = load ptr, ptr %27, align 8, !tbaa !183
  %29 = load ptr, ptr %5, align 8, !tbaa !174
  %30 = call i32 @H5EA__create_flush_depend(ptr noundef %28, ptr noundef %29)
  %31 = icmp slt i32 %30, 0
  br i1 %31, label %32, label %54

32:                                               ; preds = %25
  br label %33

33:                                               ; preds = %32
  br label %34

34:                                               ; preds = %33
  br label %35

35:                                               ; preds = %34
  %36 = load i64, ptr @H5E_EARRAY_g, align 8, !tbaa !19
  %37 = load i64, ptr @H5E_CANTDEPEND_g, align 8, !tbaa !19
  %38 = load ptr, ptr %5, align 8, !tbaa !174
  %39 = getelementptr inbounds nuw %struct.H5EA_dbk_page_t, ptr %38, i32 0, i32 3
  %40 = load i64, ptr %39, align 8, !tbaa !178
  %41 = call i32 (ptr, ptr, i32, i64, i64, ptr, ...) @H5E_printf_stack(ptr noundef @.str.5, ptr noundef @__func__.H5EA__cache_dblk_page_notify, i32 noundef 2068, i64 noundef %36, i64 noundef %37, ptr noundef @.str.55, i64 noundef %40)
  br label %42

42:                                               ; preds = %35
  br label %43

43:                                               ; preds = %42
  store i8 1, ptr %7, align 1, !tbaa !11
  %44 = load i8, ptr %7, align 1, !tbaa !11, !range !13, !noundef !14
  %45 = trunc i8 %44 to i1
  %46 = zext i1 %45 to i8
  store i8 %46, ptr %7, align 1, !tbaa !11
  br label %47

47:                                               ; preds = %43
  br label %48

48:                                               ; preds = %47
  br label %49

49:                                               ; preds = %48
  store i32 -1, ptr %6, align 4, !tbaa !22
  br label %215

50:                                               ; No predecessors!
  br label %51

51:                                               ; preds = %50
  br label %52

52:                                               ; preds = %51
  br label %53

53:                                               ; preds = %52
  br label %54

54:                                               ; preds = %53, %25
  br label %214

55:                                               ; preds = %23
  %56 = load ptr, ptr %5, align 8, !tbaa !174
  %57 = getelementptr inbounds nuw %struct.H5EA_dbk_page_t, ptr %56, i32 0, i32 5
  %58 = load i8, ptr %57, align 8, !tbaa !184, !range !13, !noundef !14
  %59 = trunc i8 %58 to i1
  br i1 %59, label %60, label %92

60:                                               ; preds = %55
  %61 = load ptr, ptr %5, align 8, !tbaa !174
  %62 = getelementptr inbounds nuw %struct.H5EA_dbk_page_t, ptr %61, i32 0, i32 2
  %63 = load ptr, ptr %62, align 8, !tbaa !182
  %64 = load ptr, ptr %5, align 8, !tbaa !174
  %65 = call i32 @H5EA__destroy_flush_depend(ptr noundef %63, ptr noundef %64)
  %66 = icmp slt i32 %65, 0
  br i1 %66, label %67, label %89

67:                                               ; preds = %60
  br label %68

68:                                               ; preds = %67
  br label %69

69:                                               ; preds = %68
  br label %70

70:                                               ; preds = %69
  %71 = load i64, ptr @H5E_EARRAY_g, align 8, !tbaa !19
  %72 = load i64, ptr @H5E_CANTUNDEPEND_g, align 8, !tbaa !19
  %73 = load ptr, ptr %5, align 8, !tbaa !174
  %74 = getelementptr inbounds nuw %struct.H5EA_dbk_page_t, ptr %73, i32 0, i32 3
  %75 = load i64, ptr %74, align 8, !tbaa !178
  %76 = call i32 (ptr, ptr, i32, i64, i64, ptr, ...) @H5E_printf_stack(ptr noundef @.str.5, ptr noundef @__func__.H5EA__cache_dblk_page_notify, i32 noundef 2078, i64 noundef %71, i64 noundef %72, ptr noundef @.str.56, i64 noundef %75)
  br label %77

77:                                               ; preds = %70
  br label %78

78:                                               ; preds = %77
  store i8 1, ptr %7, align 1, !tbaa !11
  %79 = load i8, ptr %7, align 1, !tbaa !11, !range !13, !noundef !14
  %80 = trunc i8 %79 to i1
  %81 = zext i1 %80 to i8
  store i8 %81, ptr %7, align 1, !tbaa !11
  br label %82

82:                                               ; preds = %78
  br label %83

83:                                               ; preds = %82
  br label %84

84:                                               ; preds = %83
  store i32 -1, ptr %6, align 4, !tbaa !22
  br label %215

85:                                               ; No predecessors!
  br label %86

86:                                               ; preds = %85
  br label %87

87:                                               ; preds = %86
  br label %88

88:                                               ; preds = %87
  br label %89

89:                                               ; preds = %88, %60
  %90 = load ptr, ptr %5, align 8, !tbaa !174
  %91 = getelementptr inbounds nuw %struct.H5EA_dbk_page_t, ptr %90, i32 0, i32 5
  store i8 0, ptr %91, align 8, !tbaa !184
  br label %92

92:                                               ; preds = %89, %55
  br label %214

93:                                               ; preds = %23
  %94 = load ptr, ptr %5, align 8, !tbaa !174
  %95 = getelementptr inbounds nuw %struct.H5EA_dbk_page_t, ptr %94, i32 0, i32 7
  %96 = load ptr, ptr %95, align 8, !tbaa !183
  %97 = load ptr, ptr %5, align 8, !tbaa !174
  %98 = call i32 @H5EA__destroy_flush_depend(ptr noundef %96, ptr noundef %97)
  %99 = icmp slt i32 %98, 0
  br i1 %99, label %100, label %122

100:                                              ; preds = %93
  br label %101

101:                                              ; preds = %100
  br label %102

102:                                              ; preds = %101
  br label %103

103:                                              ; preds = %102
  %104 = load i64, ptr @H5E_EARRAY_g, align 8, !tbaa !19
  %105 = load i64, ptr @H5E_CANTUNDEPEND_g, align 8, !tbaa !19
  %106 = load ptr, ptr %5, align 8, !tbaa !174
  %107 = getelementptr inbounds nuw %struct.H5EA_dbk_page_t, ptr %106, i32 0, i32 3
  %108 = load i64, ptr %107, align 8, !tbaa !178
  %109 = call i32 (ptr, ptr, i32, i64, i64, ptr, ...) @H5E_printf_stack(ptr noundef @.str.5, ptr noundef @__func__.H5EA__cache_dblk_page_notify, i32 noundef 2089, i64 noundef %104, i64 noundef %105, ptr noundef @.str.57, i64 noundef %108)
  br label %110

110:                                              ; preds = %103
  br label %111

111:                                              ; preds = %110
  store i8 1, ptr %7, align 1, !tbaa !11
  %112 = load i8, ptr %7, align 1, !tbaa !11, !range !13, !noundef !14
  %113 = trunc i8 %112 to i1
  %114 = zext i1 %113 to i8
  store i8 %114, ptr %7, align 1, !tbaa !11
  br label %115

115:                                              ; preds = %111
  br label %116

116:                                              ; preds = %115
  br label %117

117:                                              ; preds = %116
  store i32 -1, ptr %6, align 4, !tbaa !22
  br label %215

118:                                              ; No predecessors!
  br label %119

119:                                              ; preds = %118
  br label %120

120:                                              ; preds = %119
  br label %121

121:                                              ; preds = %120
  br label %122

122:                                              ; preds = %121, %93
  %123 = load ptr, ptr %5, align 8, !tbaa !174
  %124 = getelementptr inbounds nuw %struct.H5EA_dbk_page_t, ptr %123, i32 0, i32 5
  %125 = load i8, ptr %124, align 8, !tbaa !184, !range !13, !noundef !14
  %126 = trunc i8 %125 to i1
  br i1 %126, label %127, label %159

127:                                              ; preds = %122
  %128 = load ptr, ptr %5, align 8, !tbaa !174
  %129 = getelementptr inbounds nuw %struct.H5EA_dbk_page_t, ptr %128, i32 0, i32 2
  %130 = load ptr, ptr %129, align 8, !tbaa !182
  %131 = load ptr, ptr %5, align 8, !tbaa !174
  %132 = call i32 @H5EA__destroy_flush_depend(ptr noundef %130, ptr noundef %131)
  %133 = icmp slt i32 %132, 0
  br i1 %133, label %134, label %156

134:                                              ; preds = %127
  br label %135

135:                                              ; preds = %134
  br label %136

136:                                              ; preds = %135
  br label %137

137:                                              ; preds = %136
  %138 = load i64, ptr @H5E_EARRAY_g, align 8, !tbaa !19
  %139 = load i64, ptr @H5E_CANTUNDEPEND_g, align 8, !tbaa !19
  %140 = load ptr, ptr %5, align 8, !tbaa !174
  %141 = getelementptr inbounds nuw %struct.H5EA_dbk_page_t, ptr %140, i32 0, i32 3
  %142 = load i64, ptr %141, align 8, !tbaa !178
  %143 = call i32 (ptr, ptr, i32, i64, i64, ptr, ...) @H5E_printf_stack(ptr noundef @.str.5, ptr noundef @__func__.H5EA__cache_dblk_page_notify, i32 noundef 2097, i64 noundef %138, i64 noundef %139, ptr noundef @.str.56, i64 noundef %142)
  br label %144

144:                                              ; preds = %137
  br label %145

145:                                              ; preds = %144
  store i8 1, ptr %7, align 1, !tbaa !11
  %146 = load i8, ptr %7, align 1, !tbaa !11, !range !13, !noundef !14
  %147 = trunc i8 %146 to i1
  %148 = zext i1 %147 to i8
  store i8 %148, ptr %7, align 1, !tbaa !11
  br label %149

149:                                              ; preds = %145
  br label %150

150:                                              ; preds = %149
  br label %151

151:                                              ; preds = %150
  store i32 -1, ptr %6, align 4, !tbaa !22
  br label %215

152:                                              ; No predecessors!
  br label %153

153:                                              ; preds = %152
  br label %154

154:                                              ; preds = %153
  br label %155

155:                                              ; preds = %154
  br label %156

156:                                              ; preds = %155, %127
  %157 = load ptr, ptr %5, align 8, !tbaa !174
  %158 = getelementptr inbounds nuw %struct.H5EA_dbk_page_t, ptr %157, i32 0, i32 5
  store i8 0, ptr %158, align 8, !tbaa !184
  br label %159

159:                                              ; preds = %156, %122
  %160 = load ptr, ptr %5, align 8, !tbaa !174
  %161 = getelementptr inbounds nuw %struct.H5EA_dbk_page_t, ptr %160, i32 0, i32 6
  %162 = load ptr, ptr %161, align 8, !tbaa !185
  %163 = icmp ne ptr %162, null
  br i1 %163, label %164, label %193

164:                                              ; preds = %159
  %165 = load ptr, ptr %5, align 8, !tbaa !174
  %166 = getelementptr inbounds nuw %struct.H5EA_dbk_page_t, ptr %165, i32 0, i32 6
  %167 = load ptr, ptr %166, align 8, !tbaa !185
  %168 = load ptr, ptr %5, align 8, !tbaa !174
  %169 = call i32 @H5AC_proxy_entry_remove_child(ptr noundef %167, ptr noundef %168)
  %170 = icmp slt i32 %169, 0
  br i1 %170, label %171, label %190

171:                                              ; preds = %164
  br label %172

172:                                              ; preds = %171
  br label %173

173:                                              ; preds = %172
  br label %174

174:                                              ; preds = %173
  %175 = load i64, ptr @H5E_EARRAY_g, align 8, !tbaa !19
  %176 = load i64, ptr @H5E_CANTUNDEPEND_g, align 8, !tbaa !19
  %177 = call i32 (ptr, ptr, i32, i64, i64, ptr, ...) @H5E_printf_stack(ptr noundef @.str.5, ptr noundef @__func__.H5EA__cache_dblk_page_notify, i32 noundef 2106, i64 noundef %175, i64 noundef %176, ptr noundef @.str.58)
  br label %178

178:                                              ; preds = %174
  br label %179

179:                                              ; preds = %178
  store i8 1, ptr %7, align 1, !tbaa !11
  %180 = load i8, ptr %7, align 1, !tbaa !11, !range !13, !noundef !14
  %181 = trunc i8 %180 to i1
  %182 = zext i1 %181 to i8
  store i8 %182, ptr %7, align 1, !tbaa !11
  br label %183

183:                                              ; preds = %179
  br label %184

184:                                              ; preds = %183
  br label %185

185:                                              ; preds = %184
  store i32 -1, ptr %6, align 4, !tbaa !22
  br label %215

186:                                              ; No predecessors!
  br label %187

187:                                              ; preds = %186
  br label %188

188:                                              ; preds = %187
  br label %189

189:                                              ; preds = %188
  br label %190

190:                                              ; preds = %189, %164
  %191 = load ptr, ptr %5, align 8, !tbaa !174
  %192 = getelementptr inbounds nuw %struct.H5EA_dbk_page_t, ptr %191, i32 0, i32 6
  store ptr null, ptr %192, align 8, !tbaa !185
  br label %193

193:                                              ; preds = %190, %159
  br label %214

194:                                              ; preds = %23, %23, %23, %23, %23, %23
  br label %214

195:                                              ; preds = %23
  br label %196

196:                                              ; preds = %195
  br label %197

197:                                              ; preds = %196
  br label %198

198:                                              ; preds = %197
  %199 = load i64, ptr @H5E_EARRAY_g, align 8, !tbaa !19
  %200 = load i64, ptr @H5E_BADVALUE_g, align 8, !tbaa !19
  %201 = call i32 (ptr, ptr, i32, i64, i64, ptr, ...) @H5E_printf_stack(ptr noundef @.str.5, ptr noundef @__func__.H5EA__cache_dblk_page_notify, i32 noundef 2122, i64 noundef %199, i64 noundef %200, ptr noundef @.str.16)
  br label %202

202:                                              ; preds = %198
  br label %203

203:                                              ; preds = %202
  store i8 1, ptr %7, align 1, !tbaa !11
  %204 = load i8, ptr %7, align 1, !tbaa !11, !range !13, !noundef !14
  %205 = trunc i8 %204 to i1
  %206 = zext i1 %205 to i8
  store i8 %206, ptr %7, align 1, !tbaa !11
  br label %207

207:                                              ; preds = %203
  br label %208

208:                                              ; preds = %207
  br label %209

209:                                              ; preds = %208
  store i32 -1, ptr %6, align 4, !tbaa !22
  br label %215

210:                                              ; No predecessors!
  br label %211

211:                                              ; preds = %210
  br label %212

212:                                              ; preds = %211
  br label %213

213:                                              ; preds = %212
  br label %214

214:                                              ; preds = %213, %194, %193, %92, %54
  br label %215

215:                                              ; preds = %214, %209, %185, %151, %117, %84, %49
  br label %216

216:                                              ; preds = %215, %15
  %217 = load i32, ptr %6, align 4, !tbaa !22
  call void @llvm.lifetime.end.p0(i64 1, ptr %7) #8
  call void @llvm.lifetime.end.p0(i64 4, ptr %6) #8
  call void @llvm.lifetime.end.p0(i64 8, ptr %5) #8
  ret i32 %217
}